(i__main__
LogFile
p0
(dp1
S'_installed_files'
p2
(dp3
S'../../../../../../../../../cvmfs/minerva.opensciencegrid.org/minerva/software_releases/v21r1p1/minerva/EXTERNAL/EXTERNAL_v21r1p1/NuConDB/x86_64-slc6-gcc49-opt/libNuConDBLib.so'
p4
S'../../../InstallArea/x86_64-slc6-gcc49-opt/lib/libNuConDBLib.so'
p5
sS'../../../Ana/CCQENu/CCQENu'
p6
(dp7
S'../../../../Ana/CCQENu/CCQENu/ICCQENuRecoUtils.h'
p8
S'../../../InstallArea/x86_64-slc6-gcc49-opt/include/CCQENu/ICCQENuRecoUtils.h'
p9
ssS'../../../Ana/CCQENu/genConf/CCQENu'
p10
(dp11
S'../../../../Ana/CCQENu/genConf/CCQENu/CCQENuConf.py'
p12
S'../../../InstallArea/x86_64-slc6-gcc49-opt/python/CCQENu/CCQENuConf.py'
p13
sS'../../../../Ana/CCQENu/genConf/CCQENu/CCQENu_confDb.py'
p14
S'../../../InstallArea/x86_64-slc6-gcc49-opt/python/CCQENu/CCQENu_confDb.py'
p15
sssb.