(i__main__
LogFile
p0
(dp1
S'_installed_files'
p2
(dp3
S'../../../Ana/CCQENu/genConf/CCQENu'
p4
(dp5
S'../../../../Ana/CCQENu/genConf/CCQENu/CCQENuConf.py'
p6
S'../../../InstallArea/x86_64-slc6-gcc49-opt/python/CCQENu/CCQENuConf.py'
p7
sS'../../../../Ana/CCQENu/genConf/CCQENu/CCQENu_confDb.py'
p8
S'../../../InstallArea/x86_64-slc6-gcc49-opt/python/CCQENu/CCQENu_confDb.py'
p9
ssS'../../../../../../../../../cvmfs/minerva.opensciencegrid.org/minerva/software_releases/v21r1p1/minerva/EXTERNAL/EXTERNAL_v21r1p1/NuConDB/x86_64-slc6-gcc49-opt/libNuConDBLib.so'
p10
S'../../../InstallArea/x86_64-slc6-gcc49-opt/lib/libNuConDBLib.so'
p11
sS'../../../Ana/CCQENu/CCQENu'
p12
(dp13
S'../../../../Ana/CCQENu/CCQENu/ICCQENuRecoUtils.h'
p14
S'../../../InstallArea/x86_64-slc6-gcc49-opt/include/CCQENu/ICCQENuRecoUtils.h'
p15
sssb.